; Function Attrs: mustprogress uwtable
define void @_ZN3gmx34VelocityScalingTemperatureCoupling12elementSetupEv(ptr nocapture noundef nonnull readonly align 8 dereferenceable(256) %0) unnamed_addr #0 align 2 personality ptr @__gxx_personality_v0 {
  %2 = alloca %"class.gmx::ExceptionInitializer", align 8
  %3 = getelementptr inbounds i8, ptr %0, i64 192
  %4 = load ptr, ptr %3, align 8
  %.not.i.i.not = icmp eq ptr %4, null
  br i1 %.not.i.i.not, label %5, label %14

5:                                                ; preds = %1
  %6 = tail call ptr @__cxa_allocate_exception(i64 24) #30
  invoke void @_ZN3gmx20ExceptionInitializerC2EPKc(ptr noundef nonnull align 8 dereferenceable(56) %2, ptr noundef nonnull @.str.37)
          to label %7 unwind label %.thread

7:                                                ; preds = %5
  invoke void @_ZN3gmx16GromacsExceptionC2ERKNS_20ExceptionInitializerE(ptr noundef nonnull align 8 dereferenceable(24) %6, ptr noundef nonnull align 8 dereferenceable(56) %2)
          to label %9 unwind label %.thread10

.thread10:                                        ; preds = %7
  %8 = landingpad { ptr, i32 }
          cleanup
  call void @_ZN3gmx20ExceptionInitializerD2Ev(ptr noundef nonnull align 8 dereferenceable(56) %2) #30
  br label %13

9:                                                ; preds = %7
  store ptr getelementptr inbounds inrange(-16, 32) ({ [6 x ptr] }, ptr @_ZTVN3gmx29MissingElementConnectionErrorE, i64 0, i32 0, i64 2), ptr %6, align 8
  invoke void @__cxa_throw(ptr nonnull %6, ptr nonnull @_ZTIN3gmx29MissingElementConnectionErrorE, ptr nonnull @_ZN3gmx29MissingElementConnectionErrorD2Ev) #28
          to label %16 unwind label %11

.thread:                                          ; preds = %5
  %10 = landingpad { ptr, i32 }
          cleanup
  br label %13

11:                                               ; preds = %9
  %12 = landingpad { ptr, i32 }
          cleanup
  call void @_ZN3gmx20ExceptionInitializerD2Ev(ptr noundef nonnull align 8 dereferenceable(56) %2) #30
  br label %15

13:                                               ; preds = %.thread10, %.thread
  %.pn9 = phi { ptr, i32 } [ %10, %.thread ], [ %8, %.thread10 ]
  call void @__cxa_free_exception(ptr %6) #30
  br label %15

14:                                               ; preds = %1
  ret void

15:                                               ; preds = %11, %13
  %.pn8 = phi { ptr, i32 } [ %12, %11 ], [ %.pn9, %13 ]
  resume { ptr, i32 } %.pn8

16:                                               ; preds = %9
  unreachable
}